; Function Attrs: mustprogress nounwind uwtable
define internal fastcc void @_ZN9grpc_core13RefCountedPtrINS_12_GLOBAL__N_128CircuitBreakerCallCounterMap11CallCounterEED2Ev(ptr %.0.val) unnamed_addr #16 align 2 personality ptr @__gxx_personality_v0 {
  %.not = icmp eq ptr %.0.val, null
  br i1 %.not, label %_ZNK9grpc_core10RefCountedINS_12_GLOBAL__N_128CircuitBreakerCallCounterMap11CallCounterENS_19PolymorphicRefCountENS_11UnrefDeleteEE5UnrefEv.exit, label %1

1:                                                ; preds = %0
  %2 = getelementptr inbounds nuw i8, ptr %.0.val, i64 8
  %3 = atomicrmw sub ptr %2, i64 1 acq_rel, align 8
  %4 = icmp eq i64 %3, 1
  br i1 %4, label %5, label %_ZNK9grpc_core10RefCountedINS_12_GLOBAL__N_128CircuitBreakerCallCounterMap11CallCounterENS_19PolymorphicRefCountENS_11UnrefDeleteEE5UnrefEv.exit, !prof !52

5:                                                ; preds = %1
  tail call void @_ZN9grpc_core12_GLOBAL__N_128CircuitBreakerCallCounterMap11CallCounterD2Ev(ptr noundef nonnull align 8 dereferenceable(88) %.0.val) #37
  tail call void @_ZdlPvm(ptr noundef nonnull align 8 dereferenceable(16) %.0.val, i64 noundef 88) #39
  br label %_ZNK9grpc_core10RefCountedINS_12_GLOBAL__N_128CircuitBreakerCallCounterMap11CallCounterENS_19PolymorphicRefCountENS_11UnrefDeleteEE5UnrefEv.exit

_ZNK9grpc_core10RefCountedINS_12_GLOBAL__N_128CircuitBreakerCallCounterMap11CallCounterENS_19PolymorphicRefCountENS_11UnrefDeleteEE5UnrefEv.exit: ; preds = %5, %1, %0
  ret void
}